; Function Attrs: nounwind uwtable
define ptr @l_String_foldrAux___at_String_utf16Length___spec__1(ptr noundef %0, ptr noundef %1, ptr noundef %2, ptr noundef %3) local_unnamed_addr #1 {
  %5 = ptrtoint ptr %3 to i64
  %invariant.op = and i64 %5, 1
  br label %lean_dec.exit25

lean_dec.exit25:                                  ; preds = %lean_dec.exit25.backedge, %4
  %.020 = phi ptr [ %2, %4 ], [ %30, %lean_dec.exit25.backedge ]
  %.018 = phi ptr [ %0, %4 ], [ %.018.be, %lean_dec.exit25.backedge ]
  %6 = ptrtoint ptr %.020 to i64
  %7 = and i64 %6, 1
  %.reass = and i64 %6, %invariant.op
  %or.cond.not = icmp eq i64 %.reass, 0
  br i1 %or.cond.not, label %lean_nat_lt.exit, label %8, !prof !10

8:                                                ; preds = %lean_dec.exit25
  %9 = icmp ult ptr %3, %.020
  br i1 %9, label %.thread48, label %.thread

.thread48:                                        ; preds = %8
  %10 = tail call ptr @lean_string_utf8_prev(ptr noundef %1, ptr noundef nonnull %.020) #4
  br label %29

lean_nat_lt.exit:                                 ; preds = %lean_dec.exit25
  %11 = tail call zeroext i1 @lean_nat_big_lt(ptr noundef %3, ptr noundef %.020) #4
  br i1 %11, label %20, label %12

12:                                               ; preds = %lean_nat_lt.exit
  %.not46 = icmp eq i64 %7, 0
  br i1 %.not46, label %13, label %.thread

13:                                               ; preds = %12
  %14 = load i32, ptr %.020, align 4, !tbaa !4
  %15 = icmp sgt i32 %14, 1
  br i1 %15, label %16, label %18, !prof !9

16:                                               ; preds = %13
  %17 = add nsw i32 %14, -1
  store i32 %17, ptr %.020, align 4, !tbaa !4
  br label %.thread

18:                                               ; preds = %13
  %.not.i = icmp eq i32 %14, 0
  br i1 %.not.i, label %.thread, label %19

19:                                               ; preds = %18
  tail call void @lean_dec_ref_cold(ptr noundef nonnull %.020) #4
  br label %.thread

20:                                               ; preds = %lean_nat_lt.exit
  %21 = tail call ptr @lean_string_utf8_prev(ptr noundef %1, ptr noundef %.020) #4
  %.not = icmp eq i64 %7, 0
  br i1 %.not, label %22, label %29

22:                                               ; preds = %20
  %23 = load i32, ptr %.020, align 4, !tbaa !4
  %24 = icmp sgt i32 %23, 1
  br i1 %24, label %25, label %27, !prof !9

25:                                               ; preds = %22
  %26 = add nsw i32 %23, -1
  store i32 %26, ptr %.020, align 4, !tbaa !4
  br label %29

27:                                               ; preds = %22
  %.not.i26 = icmp eq i32 %23, 0
  br i1 %.not.i26, label %29, label %28

28:                                               ; preds = %27
  tail call void @lean_dec_ref_cold(ptr noundef nonnull %.020) #4
  br label %29

29:                                               ; preds = %.thread48, %20, %25, %27, %28
  %30 = phi ptr [ %10, %.thread48 ], [ %21, %20 ], [ %21, %25 ], [ %21, %27 ], [ %21, %28 ]
  %31 = tail call i32 @lean_string_utf8_get(ptr noundef %1, ptr noundef %30) #4
  %32 = icmp ugt i32 %31, 65535
  %33 = select i1 %32, ptr inttoptr (i64 5 to ptr), ptr inttoptr (i64 3 to ptr)
  %34 = ptrtoint ptr %.018 to i64
  %35 = and i64 %34, 1
  %.not44 = icmp eq i64 %35, 0
  br i1 %.not44, label %48, label %36, !prof !11

36:                                               ; preds = %29
  %37 = ptrtoint ptr %33 to i64
  %38 = lshr i64 %37, 1
  %39 = lshr i64 %34, 1
  %40 = add nuw i64 %38, %39
  %41 = icmp sgt i64 %40, -1
  br i1 %41, label %42, label %46, !prof !9

42:                                               ; preds = %36
  %43 = shl nuw i64 %40, 1
  %44 = or disjoint i64 %43, 1
  %45 = inttoptr i64 %44 to ptr
  br label %lean_dec.exit25.backedge

lean_dec.exit25.backedge:                         ; preds = %42, %46, %55, %54, %52
  %.018.be = phi ptr [ %45, %42 ], [ %47, %46 ], [ %49, %55 ], [ %49, %54 ], [ %49, %52 ]
  br label %lean_dec.exit25

46:                                               ; preds = %36
  %47 = tail call ptr @lean_big_usize_to_nat(i64 noundef range(i64 0, -1) %40) #4
  br label %lean_dec.exit25.backedge

48:                                               ; preds = %29
  %49 = tail call ptr @lean_nat_big_add(ptr noundef nonnull %33, ptr noundef %.018) #4
  %50 = load i32, ptr %.018, align 4, !tbaa !4
  %51 = icmp sgt i32 %50, 1
  br i1 %51, label %52, label %54, !prof !9

52:                                               ; preds = %48
  %53 = add nsw i32 %50, -1
  store i32 %53, ptr %.018, align 4, !tbaa !4
  br label %lean_dec.exit25.backedge

54:                                               ; preds = %48
  %.not.i28 = icmp eq i32 %50, 0
  br i1 %.not.i28, label %lean_dec.exit25.backedge, label %55

55:                                               ; preds = %54
  tail call void @lean_dec_ref_cold(ptr noundef nonnull %.018) #4
  br label %lean_dec.exit25.backedge

.thread:                                          ; preds = %8, %19, %18, %16, %12
  ret ptr %.018
}